target datalayout = "e-m:e-p270:32:32-p271:32:32-p272:64:64-i64:64-i128:128-f80:128-n8:16:32:64-S128"
target triple = "x86_64-pc-linux-gnu"

%struct.H5VL_connector_t = type { ptr, i64, ptr, ptr }

@.str = private unnamed_addr constant [106 x i8] c"generated/home/dtcxzyw/WorkSpace/Projects/compilers/llvm-opt-benchmark/bench/hdf5/hdf5/src/H5VLcallback.c\00", align 1
@H5E_ARGS_g = external global i64, align 8
@H5E_BADTYPE_g = external global i64, align 8
@.str.1 = private unnamed_addr constant [23 x i8] c"not a VOL connector ID\00", align 1
@H5E_VOL_g = external global i64, align 8
@H5E_BADVALUE_g = external global i64, align 8
@.str.17 = private unnamed_addr constant [15 x i8] c"invalid object\00", align 1
@H5E_CANTOPERATE_g = external global i64, align 8
@.str.76 = private unnamed_addr constant [45 x i8] c"unable to execute datatype specific callback\00", align 1
@__func__.H5VLdatatype_specific = private unnamed_addr constant [22 x i8] c"H5VLdatatype_specific\00", align 1

; Function Attrs: nounwind uwtable
define i32 @H5VLdatatype_specific(ptr noundef %0, i64 noundef %1, ptr noundef %2, i64 noundef %3, ptr noundef %4) #0 {
  %6 = alloca ptr, align 8
  %7 = alloca i64, align 8
  %8 = alloca ptr, align 8
  %9 = alloca i64, align 8
  %10 = alloca ptr, align 8
  %11 = alloca ptr, align 8
  %12 = alloca i32, align 4
  %13 = alloca i8, align 1
  store ptr %0, ptr %6, align 8, !tbaa !42
  store i64 %1, ptr %7, align 8, !tbaa !3
  store ptr %2, ptr %8, align 8, !tbaa !102
  store i64 %3, ptr %9, align 8, !tbaa !3
  store ptr %4, ptr %10, align 8, !tbaa !42
  call void @llvm.lifetime.start.p0(i64 8, ptr %11) #8
  call void @llvm.lifetime.start.p0(i64 4, ptr %12) #8
  store i32 0, ptr %12, align 4, !tbaa !7
  call void @llvm.lifetime.start.p0(i64 1, ptr %13) #8
  store i8 0, ptr %13, align 1, !tbaa !9
  %14 = load ptr, ptr %6, align 8, !tbaa !42
  %15 = icmp eq ptr null, %14
  br i1 %15, label %16, label %35

16:                                               ; preds = %5
  br label %17

17:                                               ; preds = %16
  br label %18

18:                                               ; preds = %17
  br label %19

19:                                               ; preds = %18
  %20 = load i64, ptr @H5E_ARGS_g, align 8, !tbaa !3
  %21 = load i64, ptr @H5E_BADVALUE_g, align 8, !tbaa !3
  %22 = call i32 (ptr, ptr, i32, i64, i64, ptr, ...) @H5E_printf_stack(ptr noundef @.str, ptr noundef @__func__.H5VLdatatype_specific, i32 noundef 3277, i64 noundef %20, i64 noundef %21, ptr noundef @.str.17)
  br label %23

23:                                               ; preds = %19
  br label %24

24:                                               ; preds = %23
  store i8 1, ptr %13, align 1, !tbaa !9
  %25 = load i8, ptr %13, align 1, !tbaa !9, !range !14, !noundef !15
  %26 = trunc i8 %25 to i1
  %27 = zext i1 %26 to i8
  store i8 %27, ptr %13, align 1, !tbaa !9
  br label %28

28:                                               ; preds = %24
  br label %29

29:                                               ; preds = %28
  br label %30

30:                                               ; preds = %29
  store i32 -1, ptr %12, align 4, !tbaa !7
  br label %88

31:                                               ; No predecessors!
  br label %32

32:                                               ; preds = %31
  br label %33

33:                                               ; preds = %32
  br label %34

34:                                               ; preds = %33
  br label %35

35:                                               ; preds = %34, %5
  %36 = load i64, ptr %7, align 8, !tbaa !3
  %37 = call ptr @H5I_object_verify(i64 noundef %36, i32 noundef 9)
  store ptr %37, ptr %11, align 8, !tbaa !11
  %38 = icmp eq ptr null, %37
  br i1 %38, label %39, label %58

39:                                               ; preds = %35
  br label %40

40:                                               ; preds = %39
  br label %41

41:                                               ; preds = %40
  br label %42

42:                                               ; preds = %41
  %43 = load i64, ptr @H5E_ARGS_g, align 8, !tbaa !3
  %44 = load i64, ptr @H5E_BADTYPE_g, align 8, !tbaa !3
  %45 = call i32 (ptr, ptr, i32, i64, i64, ptr, ...) @H5E_printf_stack(ptr noundef @.str, ptr noundef @__func__.H5VLdatatype_specific, i32 noundef 3279, i64 noundef %43, i64 noundef %44, ptr noundef @.str.1)
  br label %46

46:                                               ; preds = %42
  br label %47

47:                                               ; preds = %46
  store i8 1, ptr %13, align 1, !tbaa !9
  %48 = load i8, ptr %13, align 1, !tbaa !9, !range !14, !noundef !15
  %49 = trunc i8 %48 to i1
  %50 = zext i1 %49 to i8
  store i8 %50, ptr %13, align 1, !tbaa !9
  br label %51

51:                                               ; preds = %47
  br label %52

52:                                               ; preds = %51
  br label %53

53:                                               ; preds = %52
  store i32 -1, ptr %12, align 4, !tbaa !7
  br label %88

54:                                               ; No predecessors!
  br label %55

55:                                               ; preds = %54
  br label %56

56:                                               ; preds = %55
  br label %57

57:                                               ; preds = %56
  br label %58

58:                                               ; preds = %57, %35
  %59 = load ptr, ptr %6, align 8, !tbaa !42
  %60 = load ptr, ptr %11, align 8, !tbaa !11
  %61 = getelementptr inbounds nuw %struct.H5VL_connector_t, ptr %60, i32 0, i32 0
  %62 = load ptr, ptr %61, align 8, !tbaa !16
  %63 = load ptr, ptr %8, align 8, !tbaa !102
  %64 = load i64, ptr %9, align 8, !tbaa !3
  %65 = load ptr, ptr %10, align 8, !tbaa !42
  %66 = call i32 @H5VL__datatype_specific(ptr noundef %59, ptr noundef %62, ptr noundef %63, i64 noundef %64, ptr noundef %65)
  %67 = icmp slt i32 %66, 0
  br i1 %67, label %68, label %87

68:                                               ; preds = %58
  br label %69

69:                                               ; preds = %68
  br label %70

70:                                               ; preds = %69
  br label %71

71:                                               ; preds = %70
  %72 = load i64, ptr @H5E_VOL_g, align 8, !tbaa !3
  %73 = load i64, ptr @H5E_CANTOPERATE_g, align 8, !tbaa !3
  %74 = call i32 (ptr, ptr, i32, i64, i64, ptr, ...) @H5E_printf_stack(ptr noundef @.str, ptr noundef @__func__.H5VLdatatype_specific, i32 noundef 3283, i64 noundef %72, i64 noundef %73, ptr noundef @.str.76)
  br label %75

75:                                               ; preds = %71
  br label %76

76:                                               ; preds = %75
  store i8 1, ptr %13, align 1, !tbaa !9
  %77 = load i8, ptr %13, align 1, !tbaa !9, !range !14, !noundef !15
  %78 = trunc i8 %77 to i1
  %79 = zext i1 %78 to i8
  store i8 %79, ptr %13, align 1, !tbaa !9
  br label %80

80:                                               ; preds = %76
  br label %81

81:                                               ; preds = %80
  br label %82

82:                                               ; preds = %81
  store i32 -1, ptr %12, align 4, !tbaa !7
  br label %88

83:                                               ; No predecessors!
  br label %84

84:                                               ; preds = %83
  br label %85

85:                                               ; preds = %84
  br label %86

86:                                               ; preds = %85
  br label %87

87:                                               ; preds = %86, %58
  br label %88

88:                                               ; preds = %87, %82, %53, %30
  %89 = load i8, ptr %13, align 1, !tbaa !9, !range !14, !noundef !15
  %90 = trunc i8 %89 to i1
  %91 = xor i1 %90, true
  %92 = xor i1 %91, true
  %93 = zext i1 %92 to i32
  %94 = sext i32 %93 to i64
  %95 = call i64 @llvm.expect.i64(i64 %94, i64 0)
  %96 = icmp ne i64 %95, 0
  br i1 %96, label %97, label %99

97:                                               ; preds = %88
  %98 = call i32 @H5E_dump_api_stack()
  br label %99

99:                                               ; preds = %97, %88
  %100 = load i32, ptr %12, align 4, !tbaa !7
  call void @llvm.lifetime.end.p0(i64 1, ptr %13) #8
  call void @llvm.lifetime.end.p0(i64 4, ptr %12) #8
  call void @llvm.lifetime.end.p0(i64 8, ptr %11) #8
  ret i32 %100
}