; Function Attrs: nounwind uwtable
define range(i32 -1, 1) i32 @H5VLdatatype_specific(ptr noundef %0, i64 noundef %1, ptr noundef %2, i64 noundef %3, ptr noundef %4) local_unnamed_addr #0 {
  %6 = icmp eq ptr %0, null
  br i1 %6, label %7, label %11, !prof !41

7:                                                ; preds = %5
  %8 = load i64, ptr @H5E_ARGS_g, align 8, !tbaa !3
  %9 = load i64, ptr @H5E_BADVALUE_g, align 8, !tbaa !3
  %10 = tail call i32 (ptr, ptr, i32, i64, i64, ptr, ...) @H5E_printf_stack(ptr noundef nonnull @.str, ptr noundef nonnull @__func__.H5VLdatatype_specific, i32 noundef 3277, i64 noundef %8, i64 noundef %9, ptr noundef nonnull @.str.17) #7
  br label %26

11:                                               ; preds = %5
  %12 = tail call ptr @H5I_object_verify(i64 noundef %1, i32 noundef 9) #7
  %13 = icmp eq ptr %12, null
  br i1 %13, label %14, label %18, !prof !41

14:                                               ; preds = %11
  %15 = load i64, ptr @H5E_ARGS_g, align 8, !tbaa !3
  %16 = load i64, ptr @H5E_BADTYPE_g, align 8, !tbaa !3
  %17 = tail call i32 (ptr, ptr, i32, i64, i64, ptr, ...) @H5E_printf_stack(ptr noundef nonnull @.str, ptr noundef nonnull @__func__.H5VLdatatype_specific, i32 noundef 3279, i64 noundef %15, i64 noundef %16, ptr noundef nonnull @.str.1) #7
  br label %26

18:                                               ; preds = %11
  %19 = load ptr, ptr %12, align 8, !tbaa !7
  %20 = tail call fastcc i32 @H5VL__datatype_specific(ptr noundef nonnull %0, ptr noundef %19, ptr noundef %2, i64 noundef %3, ptr noundef %4)
  %21 = icmp slt i32 %20, 0
  br i1 %21, label %22, label %28, !prof !41

22:                                               ; preds = %18
  %23 = load i64, ptr @H5E_VOL_g, align 8, !tbaa !3
  %24 = load i64, ptr @H5E_CANTOPERATE_g, align 8, !tbaa !3
  %25 = tail call i32 (ptr, ptr, i32, i64, i64, ptr, ...) @H5E_printf_stack(ptr noundef nonnull @.str, ptr noundef nonnull @__func__.H5VLdatatype_specific, i32 noundef 3283, i64 noundef %23, i64 noundef %24, ptr noundef nonnull @.str.76) #7
  br label %26

26:                                               ; preds = %7, %14, %22
  %27 = tail call i32 @H5E_dump_api_stack() #7
  br label %28

28:                                               ; preds = %18, %26
  %.01116 = phi i32 [ -1, %26 ], [ 0, %18 ]
  ret i32 %.01116
}